; Function Attrs: mustprogress uwtable
define hidden noundef nonnull ptr @_ZN17duckdb_libpgquery6pallocEm(i64 noundef %0) local_unnamed_addr #0 {
  %2 = add i64 %0, 15
  %3 = and i64 %2, -8
  %4 = tail call align 8 ptr @llvm.threadlocal.address.p0(ptr align 8 @_ZN17duckdb_libpgqueryL15pg_parser_stateE)
  %5 = getelementptr inbounds nuw i8, ptr %4, i64 8200
  %6 = load i64, ptr %5, align 8, !tbaa !3
  %7 = add i64 %6, %3
  %8 = icmp ugt i64 %7, 10240
  br i1 %8, label %9, label %10

9:                                                ; preds = %1
  tail call fastcc void @_ZN17duckdb_libpgqueryL12allocate_newEPNS_19pg_parser_state_strEm(ptr noundef %4, i64 noundef %3)
  %.pre = load i64, ptr %5, align 8, !tbaa !3
  br label %10

10:                                               ; preds = %9, %1
  %11 = phi i64 [ %.pre, %9 ], [ %6, %1 ]
  %12 = getelementptr inbounds nuw i8, ptr %4, i64 8216
  %13 = load ptr, ptr %12, align 8, !tbaa !11
  %14 = getelementptr inbounds nuw i8, ptr %4, i64 8208
  %15 = load i64, ptr %14, align 8, !tbaa !12
  %16 = getelementptr ptr, ptr %13, i64 %15
  %17 = getelementptr i8, ptr %16, i64 -8
  %18 = load ptr, ptr %17, align 8, !tbaa !13
  %19 = getelementptr inbounds nuw i8, ptr %18, i64 %11
  store i64 %0, ptr %19, align 1
  %20 = getelementptr inbounds nuw i8, ptr %19, i64 8
  tail call void @llvm.memset.p0.i64(ptr nonnull align 1 %20, i8 0, i64 %0, i1 false)
  %21 = load i64, ptr %5, align 8, !tbaa !3
  %22 = add i64 %21, %3
  store i64 %22, ptr %5, align 8, !tbaa !3
  ret ptr %20
}